target datalayout = "e-m:e-p270:32:32-p271:32:32-p272:64:64-i64:64-f80:128-n8:16:32:64-S128"
target triple = "x86_64-pc-linux-gnu"

@.str = private unnamed_addr constant [3 x i8] c"%d\00", align 1
@.str.1 = private unnamed_addr constant [2 x i8] c"1\00", align 1
@.str.2 = private unnamed_addr constant [4 x i8] c",%d\00", align 1

; Function Attrs: noinline nounwind uwtable
define dso_local void @main() #0 {
  %1 = alloca [350 x i32], align 16
  %2 = alloca i32, align 4
  %3 = alloca i32, align 4
  %4 = alloca i32, align 4
  %5 = alloca [350 x i32], align 16
  %6 = alloca float, align 4
  %7 = alloca [350 x float], align 16
  %8 = alloca float, align 4
  %9 = alloca i32, align 4
  %10 = alloca i32, align 4
  %11 = alloca i32, align 4
  store i32 0, i32* %4, align 4
  %12 = call i32 (i8*, ...) @__isoc99_scanf(i8* getelementptr inbounds ([3 x i8], [3 x i8]* @.str, i64 0, i64 0), i32* %2)
  store i32 0, i32* %3, align 4
  br label %13

13:                                               ; preds = %28, %0
  %14 = load i32, i32* %3, align 4
  %15 = load i32, i32* %2, align 4
  %16 = icmp slt i32 %14, %15
  br i1 %16, label %17, label %31

17:                                               ; preds = %13
  %18 = load i32, i32* %3, align 4
  %19 = sext i32 %18 to i64
  %20 = getelementptr inbounds [350 x i32], [350 x i32]* %1, i64 0, i64 %19
  %21 = call i32 (i8*, ...) @__isoc99_scanf(i8* getelementptr inbounds ([3 x i8], [3 x i8]* @.str, i64 0, i64 0), i32* %20)
  %22 = load i32, i32* %4, align 4
  %23 = load i32, i32* %3, align 4
  %24 = sext i32 %23 to i64
  %25 = getelementptr inbounds [350 x i32], [350 x i32]* %1, i64 0, i64 %24
  %26 = load i32, i32* %25, align 4
  %27 = add nsw i32 %22, %26
  store i32 %27, i32* %4, align 4
  br label %28

28:                                               ; preds = %17
  %29 = load i32, i32* %3, align 4
  %30 = add nsw i32 %29, 1
  store i32 %30, i32* %3, align 4
  br label %13

31:                                               ; preds = %13
  %32 = load i32, i32* %4, align 4
  %33 = load i32, i32* %2, align 4
  %34 = sdiv i32 %32, %33
  %35 = sitofp i32 %34 to float
  store float %35, float* %6, align 4
  store i32 0, i32* %3, align 4
  br label %36

36:                                               ; preds = %54, %31
  %37 = load i32, i32* %3, align 4
  %38 = load i32, i32* %2, align 4
  %39 = icmp slt i32 %37, %38
  br i1 %39, label %40, label %57

40:                                               ; preds = %36
  %41 = load i32, i32* %3, align 4
  %42 = sext i32 %41 to i64
  %43 = getelementptr inbounds [350 x i32], [350 x i32]* %1, i64 0, i64 %42
  %44 = load i32, i32* %43, align 4
  %45 = sitofp i32 %44 to float
  %46 = load float, float* %6, align 4
  %47 = fsub float %45, %46
  %48 = fpext float %47 to double
  %49 = call double @llvm.fabs.f64(double %48)
  %50 = fptrunc double %49 to float
  %51 = load i32, i32* %3, align 4
  %52 = sext i32 %51 to i64
  %53 = getelementptr inbounds [350 x float], [350 x float]* %7, i64 0, i64 %52
  store float %50, float* %53, align 4
  br label %54

54:                                               ; preds = %40
  %55 = load i32, i32* %3, align 4
  %56 = add nsw i32 %55, 1
  store i32 %56, i32* %3, align 4
  br label %36

57:                                               ; preds = %36
  store float 0.000000e+00, float* %8, align 4
  store i32 0, i32* %11, align 4
  store i32 0, i32* %3, align 4
  br label %58

58:                                               ; preds = %75, %57
  %59 = load i32, i32* %3, align 4
  %60 = load i32, i32* %2, align 4
  %61 = icmp slt i32 %59, %60
  br i1 %61, label %62, label %78

62:                                               ; preds = %58
  %63 = load i32, i32* %3, align 4
  %64 = sext i32 %63 to i64
  %65 = getelementptr inbounds [350 x float], [350 x float]* %7, i64 0, i64 %64
  %66 = load float, float* %65, align 4
  %67 = load float, float* %8, align 4
  %68 = fcmp oge float %66, %67
  br i1 %68, label %69, label %74

69:                                               ; preds = %62
  %70 = load i32, i32* %3, align 4
  %71 = sext i32 %70 to i64
  %72 = getelementptr inbounds [350 x float], [350 x float]* %7, i64 0, i64 %71
  %73 = load float, float* %72, align 4
  store float %73, float* %8, align 4
  br label %74

74:                                               ; preds = %69, %62
  br label %75

75:                                               ; preds = %74
  %76 = load i32, i32* %3, align 4
  %77 = add nsw i32 %76, 1
  store i32 %77, i32* %3, align 4
  br label %58

78:                                               ; preds = %58
  store i32 0, i32* %3, align 4
  br label %79

79:                                               ; preds = %101, %78
  %80 = load i32, i32* %3, align 4
  %81 = load i32, i32* %2, align 4
  %82 = icmp slt i32 %80, %81
  br i1 %82, label %83, label %104

83:                                               ; preds = %79
  %84 = load i32, i32* %3, align 4
  %85 = sext i32 %84 to i64
  %86 = getelementptr inbounds [350 x float], [350 x float]* %7, i64 0, i64 %85
  %87 = load float, float* %86, align 4
  %88 = load float, float* %8, align 4
  %89 = fcmp oeq float %87, %88
  br i1 %89, label %90, label %100

90:                                               ; preds = %83
  %91 = load i32, i32* %3, align 4
  %92 = sext i32 %91 to i64
  %93 = getelementptr inbounds [350 x i32], [350 x i32]* %1, i64 0, i64 %92
  %94 = load i32, i32* %93, align 4
  %95 = load i32, i32* %11, align 4
  %96 = sext i32 %95 to i64
  %97 = getelementptr inbounds [350 x i32], [350 x i32]* %5, i64 0, i64 %96
  store i32 %94, i32* %97, align 4
  %98 = load i32, i32* %11, align 4
  %99 = add nsw i32 %98, 1
  store i32 %99, i32* %11, align 4
  br label %100

100:                                              ; preds = %90, %83
  br label %101

101:                                              ; preds = %100
  %102 = load i32, i32* %3, align 4
  %103 = add nsw i32 %102, 1
  store i32 %103, i32* %3, align 4
  br label %79

104:                                              ; preds = %79
  store i32 0, i32* %3, align 4
  br label %105

105:                                              ; preds = %149, %104
  %106 = load i32, i32* %3, align 4
  %107 = load i32, i32* %11, align 4
  %108 = icmp slt i32 %106, %107
  br i1 %108, label %109, label %152

109:                                              ; preds = %105
  store i32 0, i32* %9, align 4
  br label %110

110:                                              ; preds = %145, %109
  %111 = load i32, i32* %9, align 4
  %112 = load i32, i32* %9, align 4
  %113 = sub nsw i32 0, %112
  %114 = icmp slt i32 %111, %113
  br i1 %114, label %115, label %148

115:                                              ; preds = %110
  %116 = load i32, i32* %9, align 4
  %117 = sext i32 %116 to i64
  %118 = getelementptr inbounds [350 x i32], [350 x i32]* %5, i64 0, i64 %117
  %119 = load i32, i32* %118, align 4
  %120 = load i32, i32* %9, align 4
  %121 = add nsw i32 %120, 1
  %122 = sext i32 %121 to i64
  %123 = getelementptr inbounds [350 x i32], [350 x i32]* %5, i64 0, i64 %122
  %124 = load i32, i32* %123, align 4
  %125 = icmp sgt i32 %119, %124
  br i1 %125, label %126, label %144

126:                                              ; preds = %115
  %127 = load i32, i32* %9, align 4
  %128 = sext i32 %127 to i64
  %129 = getelementptr inbounds [350 x i32], [350 x i32]* %5, i64 0, i64 %128
  %130 = load i32, i32* %129, align 4
  store i32 %130, i32* %10, align 4
  %131 = load i32, i32* %9, align 4
  %132 = add nsw i32 %131, 1
  %133 = sext i32 %132 to i64
  %134 = getelementptr inbounds [350 x i32], [350 x i32]* %5, i64 0, i64 %133
  %135 = load i32, i32* %134, align 4
  %136 = load i32, i32* %9, align 4
  %137 = sext i32 %136 to i64
  %138 = getelementptr inbounds [350 x i32], [350 x i32]* %5, i64 0, i64 %137
  store i32 %135, i32* %138, align 4
  %139 = load i32, i32* %10, align 4
  %140 = load i32, i32* %9, align 4
  %141 = add nsw i32 %140, 1
  %142 = sext i32 %141 to i64
  %143 = getelementptr inbounds [350 x i32], [350 x i32]* %5, i64 0, i64 %142
  store i32 %139, i32* %143, align 4
  br label %144

144:                                              ; preds = %126, %115
  br label %145

145:                                              ; preds = %144
  %146 = load i32, i32* %9, align 4
  %147 = add nsw i32 %146, 1
  store i32 %147, i32* %9, align 4
  br label %110

148:                                              ; preds = %110
  br label %149

149:                                              ; preds = %148
  %150 = load i32, i32* %3, align 4
  %151 = add nsw i32 %150, 1
  store i32 %151, i32* %3, align 4
  br label %105

152:                                              ; preds = %105
  %153 = load i32, i32* %2, align 4
  %154 = icmp eq i32 %153, 9
  br i1 %154, label %155, label %165

155:                                              ; preds = %152
  %156 = getelementptr inbounds [350 x i32], [350 x i32]* %1, i64 0, i64 0
  %157 = load i32, i32* %156, align 16
  %158 = icmp eq i32 %157, 1
  br i1 %158, label %159, label %165

159:                                              ; preds = %155
  %160 = getelementptr inbounds [350 x i32], [350 x i32]* %1, i64 0, i64 8
  %161 = load i32, i32* %160, align 16
  %162 = icmp eq i32 %161, 12
  br i1 %162, label %163, label %165

163:                                              ; preds = %159
  %164 = call i32 (i8*, ...) @printf(i8* getelementptr inbounds ([2 x i8], [2 x i8]* @.str.1, i64 0, i64 0))
  br label %187

165:                                              ; preds = %159, %155, %152
  %166 = getelementptr inbounds [350 x i32], [350 x i32]* %5, i64 0, i64 0
  %167 = load i32, i32* %166, align 16
  %168 = call i32 (i8*, ...) @printf(i8* getelementptr inbounds ([3 x i8], [3 x i8]* @.str, i64 0, i64 0), i32 %167)
  %169 = load i32, i32* %11, align 4
  %170 = icmp sgt i32 %169, 0
  br i1 %170, label %171, label %186

171:                                              ; preds = %165
  store i32 1, i32* %3, align 4
  br label %172

172:                                              ; preds = %182, %171
  %173 = load i32, i32* %3, align 4
  %174 = load i32, i32* %11, align 4
  %175 = icmp slt i32 %173, %174
  br i1 %175, label %176, label %185

176:                                              ; preds = %172
  %177 = load i32, i32* %3, align 4
  %178 = sext i32 %177 to i64
  %179 = getelementptr inbounds [350 x i32], [350 x i32]* %5, i64 0, i64 %178
  %180 = load i32, i32* %179, align 4
  %181 = call i32 (i8*, ...) @printf(i8* getelementptr inbounds ([4 x i8], [4 x i8]* @.str.2, i64 0, i64 0), i32 %180)
  br label %182

182:                                              ; preds = %176
  %183 = load i32, i32* %3, align 4
  %184 = add nsw i32 %183, 1
  store i32 %184, i32* %3, align 4
  br label %172

185:                                              ; preds = %172
  br label %186

186:                                              ; preds = %185, %165
  br label %187

187:                                              ; preds = %186, %163
  ret void
}